target datalayout = "e-m:e-p270:32:32-p271:32:32-p272:64:64-i64:64-i128:128-f80:128-n8:16:32:64-S128"
target triple = "x86_64-pc-linux-gnu"

%"class.llvm::SmallVectorBase" = type { ptr, i32, i32 }
%"class.llvm::VPlanHCFGBuilder" = type { ptr, ptr, ptr, %"class.llvm::VPDominatorTree" }
%"class.llvm::VPDominatorTree" = type { %"class.llvm::DominatorTreeBase.base", [4 x i8] }
%"class.llvm::DominatorTreeBase.base" = type <{ %"class.llvm::SmallVector.6", %"class.llvm::SmallVector.11", %"class.llvm::DenseMap.16", ptr, ptr, i8, [3 x i8], i32, i32 }>
%"class.llvm::SmallVector.6" = type { %"class.llvm::SmallVectorImpl.7", %"struct.llvm::SmallVectorStorage.10" }
%"class.llvm::SmallVectorImpl.7" = type { %"class.llvm::SmallVectorTemplateBase.8" }
%"class.llvm::SmallVectorTemplateBase.8" = type { %"class.llvm::SmallVectorTemplateCommon.9" }
%"class.llvm::SmallVectorTemplateCommon.9" = type { %"class.llvm::SmallVectorBase" }
%"struct.llvm::SmallVectorStorage.10" = type { [8 x i8] }
%"class.llvm::SmallVector.11" = type { %"class.llvm::SmallVectorImpl.12", %"struct.llvm::SmallVectorStorage.15" }
%"class.llvm::SmallVectorImpl.12" = type { %"class.llvm::SmallVectorTemplateBase.13" }
%"class.llvm::SmallVectorTemplateBase.13" = type { %"class.llvm::SmallVectorTemplateCommon.14" }
%"class.llvm::SmallVectorTemplateCommon.14" = type { %"class.llvm::SmallVectorBase" }
%"struct.llvm::SmallVectorStorage.15" = type { [48 x i8] }
%"class.llvm::DenseMap.16" = type <{ ptr, i32, i32, i32, [4 x i8] }>
%"class.llvm::DominatorTreeBase" = type <{ %"class.llvm::SmallVector.6", %"class.llvm::SmallVector.11", %"class.llvm::DenseMap.16", ptr, ptr, i8, [3 x i8], i32, i32, [4 x i8] }>

; Function Attrs: mustprogress nounwind uwtable
define linkonce_odr hidden void @_ZN4llvm17DominatorTreeBaseINS_11VPBlockBaseELb0EE22updateBlockNumberEpochEv(ptr noundef nonnull align 8 dereferenceable(140) %0) #0 comdat align 2 {
  %2 = alloca ptr, align 8
  store ptr %0, ptr %2, align 8
  ret void
}

; Function Attrs: mustprogress nounwind uwtable
define linkonce_odr hidden void @_ZN4llvm17DominatorTreeBaseINS_11VPBlockBaseELb0EE11recalculateERNS_5VPlanE(ptr noundef nonnull align 8 dereferenceable(140) %0, ptr noundef nonnull align 8 dereferenceable(512) %1) #0 comdat align 2 {
  %3 = alloca ptr, align 8
  %4 = alloca ptr, align 8
  store ptr %0, ptr %3, align 8
  store ptr %1, ptr %4, align 8
  %5 = load ptr, ptr %3, align 8
  %6 = load ptr, ptr %4, align 8
  %7 = getelementptr inbounds nuw %"class.llvm::DominatorTreeBase", ptr %5, i32 0, i32 4
  store ptr %6, ptr %7, align 8
  call void @_ZN4llvm17DominatorTreeBaseINS_11VPBlockBaseELb0EE22updateBlockNumberEpochEv(ptr noundef nonnull align 8 dereferenceable(140) %5)
  call void @_ZN4llvm14DomTreeBuilder9CalculateINS_17DominatorTreeBaseINS_11VPBlockBaseELb0EEEEEvRT_(ptr noundef nonnull align 8 dereferenceable(140) %5)
  ret void
}

; Function Attrs: mustprogress nounwind uwtable
define dso_local void @_ZN4llvm16VPlanHCFGBuilder20buildHierarchicalCFGEv(ptr noundef nonnull align 8 dereferenceable(168) %0) #0 align 2 {
  %2 = alloca ptr, align 8
  store ptr %0, ptr %2, align 8
  %3 = load ptr, ptr %2, align 8
  call void @_ZN4llvm16VPlanHCFGBuilder13buildPlainCFGEv(ptr noundef nonnull align 8 dereferenceable(168) %3)
  br label %4

4:                                                ; preds = %1
  br label %5

5:                                                ; preds = %4
  %6 = getelementptr inbounds nuw %"class.llvm::VPlanHCFGBuilder", ptr %3, i32 0, i32 3
  %7 = getelementptr inbounds nuw %"class.llvm::VPlanHCFGBuilder", ptr %3, i32 0, i32 2
  %8 = load ptr, ptr %7, align 8
  call void @_ZN4llvm17DominatorTreeBaseINS_11VPBlockBaseELb0EE11recalculateERNS_5VPlanE(ptr noundef nonnull align 8 dereferenceable(140) %6, ptr noundef nonnull align 8 dereferenceable(512) %8)
  br label %9

9:                                                ; preds = %5
  br label %10

10:                                               ; preds = %9
  ret void
}