; Function Attrs: mustprogress nounwind uwtable
define dso_local void @_ZN4llvm16VPlanHCFGBuilder20buildHierarchicalCFGEv(ptr noundef nonnull align 8 dereferenceable(168) %0) local_unnamed_addr #0 align 2 {
  tail call void @_ZN4llvm16VPlanHCFGBuilder13buildPlainCFGEv(ptr noundef nonnull align 8 dereferenceable(168) %0)
  %2 = getelementptr inbounds nuw i8, ptr %0, i64 24
  %3 = getelementptr inbounds nuw i8, ptr %0, i64 16
  %4 = load ptr, ptr %3, align 8
  %5 = getelementptr inbounds i8, ptr %0, i64 144
  store ptr %4, ptr %5, align 8
  tail call void @_ZN4llvm14DomTreeBuilder9CalculateINS_17DominatorTreeBaseINS_11VPBlockBaseELb0EEEEEvRT_(ptr noundef nonnull align 8 dereferenceable(140) %2) #16
  ret void
}